target datalayout = "e-m:e-p270:32:32-p271:32:32-p272:64:64-i64:64-i128:128-f80:128-n8:16:32:64-S128"
target triple = "x86_64-unknown-linux-gnu"

%"class.icu_75::UObject" = type { ptr }
%"class.icu_75::UVector" = type { %"class.icu_75::UObject", i32, i32, ptr, ptr, ptr }

@_ZN6icu_7512_GLOBAL__N_112gNumsysNamesE = internal global ptr null, align 8

; Function Attrs: mustprogress nounwind uwtable
define linkonce_odr noundef i32 @_ZNK6icu_757UVector4sizeEv(ptr noundef nonnull align 8 dereferenceable(40) %this) #0 comdat align 2 {
entry:
  %this.addr = alloca ptr, align 8
  store ptr %this, ptr %this.addr, align 8
  %this1 = load ptr, ptr %this.addr, align 8
  %count = getelementptr inbounds %"class.icu_75::UVector", ptr %this1, i32 0, i32 1
  %0 = load i32, ptr %count, align 8
  ret i32 %0
}

; Function Attrs: mustprogress uwtable
define noundef i32 @_ZNK6icu_7521NumsysNameEnumeration5countER10UErrorCode(ptr noundef nonnull align 8 dereferenceable(120) %this, ptr noundef nonnull align 4 dereferenceable(4) %0) unnamed_addr #1 align 2 {
entry:
  %this.addr = alloca ptr, align 8
  %.addr = alloca ptr, align 8
  store ptr %this, ptr %this.addr, align 8
  store ptr %0, ptr %.addr, align 8
  %1 = load ptr, ptr @_ZN6icu_7512_GLOBAL__N_112gNumsysNamesE, align 8
  %cmp = icmp eq ptr %1, null
  br i1 %cmp, label %cond.true, label %cond.false

cond.true:                                        ; preds = %entry
  br label %cond.end

cond.false:                                       ; preds = %entry
  %2 = load ptr, ptr @_ZN6icu_7512_GLOBAL__N_112gNumsysNamesE, align 8
  %call = call noundef i32 @_ZNK6icu_757UVector4sizeEv(ptr noundef nonnull align 8 dereferenceable(40) %2)
  br label %cond.end

cond.end:                                         ; preds = %cond.false, %cond.true
  %cond = phi i32 [ 0, %cond.true ], [ %call, %cond.false ]
  ret i32 %cond
}