; Function Attrs: mustprogress nofree norecurse nosync nounwind willreturn memory(read, inaccessiblemem: none) uwtable
define noundef i32 @_ZNK6icu_7521NumsysNameEnumeration5countER10UErrorCode(ptr nocapture nonnull readnone align 8 %this, ptr nocapture nonnull readnone align 4 %0) unnamed_addr #10 align 2 {
entry:
  %1 = load ptr, ptr @_ZN6icu_7512_GLOBAL__N_112gNumsysNamesE, align 8
  %cmp = icmp eq ptr %1, null
  br i1 %cmp, label %cond.end, label %cond.false

cond.false:                                       ; preds = %entry
  %count.i = getelementptr inbounds i8, ptr %1, i64 8
  %2 = load i32, ptr %count.i, align 8
  br label %cond.end

cond.end:                                         ; preds = %entry, %cond.false
  %cond = phi i32 [ %2, %cond.false ], [ 0, %entry ]
  ret i32 %cond
}